; Function Attrs: mustprogress uwtable
define dso_local noundef nonnull align 8 dereferenceable(32) ptr @_ZNK8cmTarget15GetSafePropertyERKNSt7__cxx1112basic_stringIcSt11char_traitsIcESaIcEEE(ptr noundef nonnull readonly align 8 captures(none) dereferenceable(8) %0, ptr noundef nonnull align 8 dereferenceable(32) %1) local_unnamed_addr #5 align 2 personality ptr @__gxx_personality_v0 {
  %3 = tail call ptr @_ZNK8cmTarget11GetPropertyERKNSt7__cxx1112basic_stringIcSt11char_traitsIcESaIcEEE(ptr noundef nonnull align 8 dereferenceable(8) %0, ptr noundef nonnull align 8 dereferenceable(32) %1)
  %.not4 = icmp eq ptr %3, null
  br i1 %.not4, label %4, label %11

4:                                                ; preds = %2
  %5 = load atomic i8, ptr @_ZGVZNK8cmTarget15GetSafePropertyERKNSt7__cxx1112basic_stringIcSt11char_traitsIcESaIcEEEE7s_emptyB5cxx11 acquire, align 8
  %6 = icmp eq i8 %5, 0
  br i1 %6, label %7, label %11, !prof !4

7:                                                ; preds = %4
  %8 = tail call i32 @__cxa_guard_acquire(ptr nonnull @_ZGVZNK8cmTarget15GetSafePropertyERKNSt7__cxx1112basic_stringIcSt11char_traitsIcESaIcEEEE7s_emptyB5cxx11) #30
  %.not = icmp eq i32 %8, 0
  br i1 %.not, label %11, label %9

9:                                                ; preds = %7
  store ptr getelementptr inbounds nuw (i8, ptr @_ZZNK8cmTarget15GetSafePropertyERKNSt7__cxx1112basic_stringIcSt11char_traitsIcESaIcEEEE7s_emptyB5cxx11, i64 16), ptr @_ZZNK8cmTarget15GetSafePropertyERKNSt7__cxx1112basic_stringIcSt11char_traitsIcESaIcEEEE7s_emptyB5cxx11, align 8, !tbaa !5
  store i64 0, ptr getelementptr inbounds nuw (i8, ptr @_ZZNK8cmTarget15GetSafePropertyERKNSt7__cxx1112basic_stringIcSt11char_traitsIcESaIcEEEE7s_emptyB5cxx11, i64 8), align 8, !tbaa !11
  store i8 0, ptr getelementptr inbounds nuw (i8, ptr @_ZZNK8cmTarget15GetSafePropertyERKNSt7__cxx1112basic_stringIcSt11char_traitsIcESaIcEEEE7s_emptyB5cxx11, i64 16), align 8, !tbaa !14
  %10 = tail call i32 @__cxa_atexit(ptr nonnull @_ZNSt7__cxx1112basic_stringIcSt11char_traitsIcESaIcEED2Ev, ptr nonnull @_ZZNK8cmTarget15GetSafePropertyERKNSt7__cxx1112basic_stringIcSt11char_traitsIcESaIcEEEE7s_emptyB5cxx11, ptr nonnull @__dso_handle) #30
  tail call void @__cxa_guard_release(ptr nonnull @_ZGVZNK8cmTarget15GetSafePropertyERKNSt7__cxx1112basic_stringIcSt11char_traitsIcESaIcEEEE7s_emptyB5cxx11) #30
  br label %11

11:                                               ; preds = %2, %4, %7, %9
  %.0 = phi ptr [ @_ZZNK8cmTarget15GetSafePropertyERKNSt7__cxx1112basic_stringIcSt11char_traitsIcESaIcEEEE7s_emptyB5cxx11, %9 ], [ @_ZZNK8cmTarget15GetSafePropertyERKNSt7__cxx1112basic_stringIcSt11char_traitsIcESaIcEEEE7s_emptyB5cxx11, %7 ], [ @_ZZNK8cmTarget15GetSafePropertyERKNSt7__cxx1112basic_stringIcSt11char_traitsIcESaIcEEEE7s_emptyB5cxx11, %4 ], [ %3, %2 ]
  ret ptr %.0
}